; Function Attrs: mustprogress uwtable
define hidden noundef i64 @_ZNK4cvc58internal35CodatatypeBoundVariableHashFunctionclERKNS0_23CodatatypeBoundVariableE(ptr noundef nonnull readnone align 1 captures(none) dereferenceable(1) %this, ptr noundef nonnull align 8 dereferenceable(24) %cbv) local_unnamed_addr #3 align 2 {
entry:
  %ref.tmp = alloca %"struct.std::hash", align 1
  %0 = load ptr, ptr %cbv, align 8
  %call2 = call noundef i64 @_ZNKSt4hashIN4cvc58internal8TypeNodeEEclERKS2_(ptr noundef nonnull align 1 dereferenceable(1) %ref.tmp, ptr noundef nonnull align 8 dereferenceable(8) %0)
  %d_index.i = getelementptr inbounds nuw i8, ptr %cbv, i64 8
  %call.i = call noundef i64 @_ZNK4cvc58internal7Integer4hashEv(ptr noundef nonnull align 8 dereferenceable(16) %d_index.i)
  %mul = mul i64 %call.i, %call2
  ret i64 %mul
}